target datalayout = "e-m:e-p270:32:32-p271:32:32-p272:64:64-i64:64-i128:128-f80:128-n8:16:32:64-S128"
target triple = "x86_64-pc-linux-gnu"

%struct.zlentry = type { i32, i32, i32, i32, i32, i8, ptr }

@.str.1 = private unnamed_addr constant [10 x i8] c"ziplist.c\00", align 1
@.str.11 = private unnamed_addr constant [50 x i8] c"p + prevlensize < zl + zlbytes - ZIPLIST_END_SIZE\00", align 1
@.str.12 = private unnamed_addr constant [69 x i8] c"p >= zl + ZIPLIST_HEADER_SIZE && p < zl + zlbytes - ZIPLIST_END_SIZE\00", align 1
@.str.14 = private unnamed_addr constant [36 x i8] c"zipEntrySafe(zl, zlbytes, p, &e, 1)\00", align 1
@.str.35 = private unnamed_addr constant [36 x i8] c"zipEntrySafe(zl, zlbytes, p, &e, 0)\00", align 1

; Function Attrs: inlinehint nounwind uwtable
define internal void @zipAssertValidEntry(ptr noundef %0, i64 noundef %1, ptr noundef %2) #8 {
  %4 = alloca ptr, align 8
  %5 = alloca i64, align 8
  %6 = alloca ptr, align 8
  %7 = alloca %struct.zlentry, align 8
  store ptr %0, ptr %4, align 8, !tbaa !5
  store i64 %1, ptr %5, align 8, !tbaa !10
  store ptr %2, ptr %6, align 8, !tbaa !5
  call void @llvm.lifetime.start.p0(i64 32, ptr %7) #11
  %8 = load ptr, ptr %4, align 8, !tbaa !5
  %9 = load i64, ptr %5, align 8, !tbaa !10
  %10 = load ptr, ptr %6, align 8, !tbaa !5
  %11 = call i32 @zipEntrySafe(ptr noundef %8, i64 noundef %9, ptr noundef %10, ptr noundef %7, i32 noundef 1)
  %12 = icmp ne i32 %11, 0
  %13 = xor i1 %12, true
  %14 = xor i1 %13, true
  %15 = zext i1 %14 to i32
  %16 = sext i32 %15 to i64
  %17 = call i64 @llvm.expect.i64(i64 %16, i64 1)
  %18 = icmp ne i64 %17, 0
  br i1 %18, label %19, label %20

19:                                               ; preds = %3
  br label %22

20:                                               ; preds = %3
  call void @_serverAssert(ptr noundef @.str.14, ptr noundef @.str.1, i32 noundef 707)
  call void @abort() #12
  unreachable

21:                                               ; No predecessors!
  br label %22

22:                                               ; preds = %21, %19
  call void @llvm.lifetime.end.p0(i64 32, ptr %7) #11
  ret void
}

; Function Attrs: inlinehint nounwind uwtable
define internal i32 @zipRawEntryLengthSafe(ptr noundef %0, i64 noundef %1, ptr noundef %2) #8 {
  %4 = alloca ptr, align 8
  %5 = alloca i64, align 8
  %6 = alloca ptr, align 8
  %7 = alloca %struct.zlentry, align 8
  store ptr %0, ptr %4, align 8, !tbaa !5
  store i64 %1, ptr %5, align 8, !tbaa !10
  store ptr %2, ptr %6, align 8, !tbaa !5
  call void @llvm.lifetime.start.p0(i64 32, ptr %7) #11
  %8 = load ptr, ptr %4, align 8, !tbaa !5
  %9 = load i64, ptr %5, align 8, !tbaa !10
  %10 = load ptr, ptr %6, align 8, !tbaa !5
  %11 = call i32 @zipEntrySafe(ptr noundef %8, i64 noundef %9, ptr noundef %10, ptr noundef %7, i32 noundef 0)
  %12 = icmp ne i32 %11, 0
  %13 = xor i1 %12, true
  %14 = xor i1 %13, true
  %15 = zext i1 %14 to i32
  %16 = sext i32 %15 to i64
  %17 = call i64 @llvm.expect.i64(i64 %16, i64 1)
  %18 = icmp ne i64 %17, 0
  br i1 %18, label %19, label %20

19:                                               ; preds = %3
  br label %22

20:                                               ; preds = %3
  call void @_serverAssert(ptr noundef @.str.35, ptr noundef @.str.1, i32 noundef 693)
  call void @abort() #12
  unreachable

21:                                               ; No predecessors!
  br label %22

22:                                               ; preds = %21, %19
  %23 = getelementptr inbounds nuw %struct.zlentry, ptr %7, i32 0, i32 4
  %24 = load i32, ptr %23, align 8, !tbaa !21
  %25 = getelementptr inbounds nuw %struct.zlentry, ptr %7, i32 0, i32 3
  %26 = load i32, ptr %25, align 4, !tbaa !23
  %27 = add i32 %24, %26
  call void @llvm.lifetime.end.p0(i64 32, ptr %7) #11
  ret i32 %27
}

; Function Attrs: nounwind uwtable
define dso_local ptr @ziplistIndex(ptr noundef %0, i32 noundef %1) #0 {
  %3 = alloca ptr, align 8
  %4 = alloca ptr, align 8
  %5 = alloca i32, align 4
  %6 = alloca ptr, align 8
  %7 = alloca i32, align 4
  %8 = alloca i32, align 4
  %9 = alloca i64, align 8
  %10 = alloca i32, align 4
  store ptr %0, ptr %4, align 8, !tbaa !5
  store i32 %1, ptr %5, align 4, !tbaa !12
  call void @llvm.lifetime.start.p0(i64 8, ptr %6) #11
  call void @llvm.lifetime.start.p0(i64 4, ptr %7) #11
  call void @llvm.lifetime.start.p0(i64 4, ptr %8) #11
  store i32 0, ptr %8, align 4, !tbaa !12
  call void @llvm.lifetime.start.p0(i64 8, ptr %9) #11
  %11 = load ptr, ptr %4, align 8, !tbaa !5
  %12 = load i32, ptr %11, align 4, !tbaa !12
  %13 = zext i32 %12 to i64
  store i64 %13, ptr %9, align 8, !tbaa !10
  %14 = load i32, ptr %5, align 4, !tbaa !12
  %15 = icmp slt i32 %14, 0
  br i1 %15, label %16, label %192

16:                                               ; preds = %2
  %17 = load i32, ptr %5, align 4, !tbaa !12
  %18 = sub nsw i32 0, %17
  %19 = sub nsw i32 %18, 1
  store i32 %19, ptr %5, align 4, !tbaa !12
  %20 = load ptr, ptr %4, align 8, !tbaa !5
  %21 = load ptr, ptr %4, align 8, !tbaa !5
  %22 = getelementptr inbounds nuw i8, ptr %21, i64 4
  %23 = load i32, ptr %22, align 4, !tbaa !12
  %24 = zext i32 %23 to i64
  %25 = getelementptr inbounds nuw i8, ptr %20, i64 %24
  store ptr %25, ptr %6, align 8, !tbaa !5
  %26 = load ptr, ptr %6, align 8, !tbaa !5
  %27 = getelementptr inbounds i8, ptr %26, i64 0
  %28 = load i8, ptr %27, align 1, !tbaa !14
  %29 = zext i8 %28 to i32
  %30 = icmp ne i32 %29, 255
  br i1 %30, label %31, label %191

31:                                               ; preds = %16
  br label %32

32:                                               ; preds = %31
  %33 = load ptr, ptr %6, align 8, !tbaa !5
  %34 = getelementptr inbounds i8, ptr %33, i64 0
  %35 = load i8, ptr %34, align 1, !tbaa !14
  %36 = zext i8 %35 to i32
  %37 = icmp slt i32 %36, 254
  br i1 %37, label %38, label %39

38:                                               ; preds = %32
  store i32 1, ptr %7, align 4, !tbaa !12
  br label %40

39:                                               ; preds = %32
  store i32 5, ptr %7, align 4, !tbaa !12
  br label %40

40:                                               ; preds = %39, %38
  br label %41

41:                                               ; preds = %40
  br label %42

42:                                               ; preds = %41
  %43 = load ptr, ptr %6, align 8, !tbaa !5
  %44 = load i32, ptr %7, align 4, !tbaa !12
  %45 = zext i32 %44 to i64
  %46 = getelementptr inbounds nuw i8, ptr %43, i64 %45
  %47 = load ptr, ptr %4, align 8, !tbaa !5
  %48 = load i64, ptr %9, align 8, !tbaa !10
  %49 = getelementptr inbounds nuw i8, ptr %47, i64 %48
  %50 = getelementptr inbounds i8, ptr %49, i64 -1
  %51 = icmp ult ptr %46, %50
  %52 = xor i1 %51, true
  %53 = xor i1 %52, true
  %54 = zext i1 %53 to i32
  %55 = sext i32 %54 to i64
  %56 = call i64 @llvm.expect.i64(i64 %55, i64 1)
  %57 = icmp ne i64 %56, 0
  br i1 %57, label %58, label %59

58:                                               ; preds = %42
  br label %61

59:                                               ; preds = %42
  call void @_serverAssert(ptr noundef @.str.11, ptr noundef @.str.1, i32 noundef 1163)
  call void @abort() #12
  unreachable

60:                                               ; No predecessors!
  br label %61

61:                                               ; preds = %60, %58
  br label %62

62:                                               ; preds = %61
  br label %63

63:                                               ; preds = %62
  %64 = load ptr, ptr %6, align 8, !tbaa !5
  %65 = getelementptr inbounds i8, ptr %64, i64 0
  %66 = load i8, ptr %65, align 1, !tbaa !14
  %67 = zext i8 %66 to i32
  %68 = icmp slt i32 %67, 254
  br i1 %68, label %69, label %70

69:                                               ; preds = %63
  store i32 1, ptr %7, align 4, !tbaa !12
  br label %71

70:                                               ; preds = %63
  store i32 5, ptr %7, align 4, !tbaa !12
  br label %71

71:                                               ; preds = %70, %69
  br label %72

72:                                               ; preds = %71
  br label %73

73:                                               ; preds = %72
  %74 = load i32, ptr %7, align 4, !tbaa !12
  %75 = icmp eq i32 %74, 1
  br i1 %75, label %76, label %81

76:                                               ; preds = %73
  %77 = load ptr, ptr %6, align 8, !tbaa !5
  %78 = getelementptr inbounds i8, ptr %77, i64 0
  %79 = load i8, ptr %78, align 1, !tbaa !14
  %80 = zext i8 %79 to i32
  store i32 %80, ptr %8, align 4, !tbaa !12
  br label %104

81:                                               ; preds = %73
  %82 = load ptr, ptr %6, align 8, !tbaa !5
  %83 = getelementptr inbounds i8, ptr %82, i64 4
  %84 = load i8, ptr %83, align 1, !tbaa !14
  %85 = zext i8 %84 to i32
  %86 = shl i32 %85, 24
  %87 = load ptr, ptr %6, align 8, !tbaa !5
  %88 = getelementptr inbounds i8, ptr %87, i64 3
  %89 = load i8, ptr %88, align 1, !tbaa !14
  %90 = zext i8 %89 to i32
  %91 = shl i32 %90, 16
  %92 = or i32 %86, %91
  %93 = load ptr, ptr %6, align 8, !tbaa !5
  %94 = getelementptr inbounds i8, ptr %93, i64 2
  %95 = load i8, ptr %94, align 1, !tbaa !14
  %96 = zext i8 %95 to i32
  %97 = shl i32 %96, 8
  %98 = or i32 %92, %97
  %99 = load ptr, ptr %6, align 8, !tbaa !5
  %100 = getelementptr inbounds i8, ptr %99, i64 1
  %101 = load i8, ptr %100, align 1, !tbaa !14
  %102 = zext i8 %101 to i32
  %103 = or i32 %98, %102
  store i32 %103, ptr %8, align 4, !tbaa !12
  br label %104

104:                                              ; preds = %81, %76
  br label %105

105:                                              ; preds = %104
  br label %106

106:                                              ; preds = %105
  br label %107

107:                                              ; preds = %189, %106
  %108 = load i32, ptr %8, align 4, !tbaa !12
  %109 = icmp ugt i32 %108, 0
  br i1 %109, label %110, label %114

110:                                              ; preds = %107
  %111 = load i32, ptr %5, align 4, !tbaa !12
  %112 = add nsw i32 %111, -1
  store i32 %112, ptr %5, align 4, !tbaa !12
  %113 = icmp ne i32 %111, 0
  br label %114

114:                                              ; preds = %110, %107
  %115 = phi i1 [ false, %107 ], [ %113, %110 ]
  br i1 %115, label %116, label %190

116:                                              ; preds = %114
  %117 = load i32, ptr %8, align 4, !tbaa !12
  %118 = load ptr, ptr %6, align 8, !tbaa !5
  %119 = zext i32 %117 to i64
  %120 = sub i64 0, %119
  %121 = getelementptr inbounds i8, ptr %118, i64 %120
  store ptr %121, ptr %6, align 8, !tbaa !5
  %122 = load ptr, ptr %6, align 8, !tbaa !5
  %123 = load ptr, ptr %4, align 8, !tbaa !5
  %124 = getelementptr inbounds nuw i8, ptr %123, i64 10
  %125 = icmp uge ptr %122, %124
  br i1 %125, label %126, label %133

126:                                              ; preds = %116
  %127 = load ptr, ptr %6, align 8, !tbaa !5
  %128 = load ptr, ptr %4, align 8, !tbaa !5
  %129 = load i64, ptr %9, align 8, !tbaa !10
  %130 = getelementptr inbounds nuw i8, ptr %128, i64 %129
  %131 = getelementptr inbounds i8, ptr %130, i64 -1
  %132 = icmp ult ptr %127, %131
  br label %133

133:                                              ; preds = %126, %116
  %134 = phi i1 [ false, %116 ], [ %132, %126 ]
  %135 = xor i1 %134, true
  %136 = xor i1 %135, true
  %137 = zext i1 %136 to i32
  %138 = sext i32 %137 to i64
  %139 = call i64 @llvm.expect.i64(i64 %138, i64 1)
  %140 = icmp ne i64 %139, 0
  br i1 %140, label %141, label %142

141:                                              ; preds = %133
  br label %144

142:                                              ; preds = %133
  call void @_serverAssert(ptr noundef @.str.12, ptr noundef @.str.1, i32 noundef 1167)
  call void @abort() #12
  unreachable

143:                                              ; No predecessors!
  br label %144

144:                                              ; preds = %143, %141
  br label %145

145:                                              ; preds = %144
  br label %146

146:                                              ; preds = %145
  %147 = load ptr, ptr %6, align 8, !tbaa !5
  %148 = getelementptr inbounds i8, ptr %147, i64 0
  %149 = load i8, ptr %148, align 1, !tbaa !14
  %150 = zext i8 %149 to i32
  %151 = icmp slt i32 %150, 254
  br i1 %151, label %152, label %153

152:                                              ; preds = %146
  store i32 1, ptr %7, align 4, !tbaa !12
  br label %154

153:                                              ; preds = %146
  store i32 5, ptr %7, align 4, !tbaa !12
  br label %154

154:                                              ; preds = %153, %152
  br label %155

155:                                              ; preds = %154
  br label %156

156:                                              ; preds = %155
  %157 = load i32, ptr %7, align 4, !tbaa !12
  %158 = icmp eq i32 %157, 1
  br i1 %158, label %159, label %164

159:                                              ; preds = %156
  %160 = load ptr, ptr %6, align 8, !tbaa !5
  %161 = getelementptr inbounds i8, ptr %160, i64 0
  %162 = load i8, ptr %161, align 1, !tbaa !14
  %163 = zext i8 %162 to i32
  store i32 %163, ptr %8, align 4, !tbaa !12
  br label %187

164:                                              ; preds = %156
  %165 = load ptr, ptr %6, align 8, !tbaa !5
  %166 = getelementptr inbounds i8, ptr %165, i64 4
  %167 = load i8, ptr %166, align 1, !tbaa !14
  %168 = zext i8 %167 to i32
  %169 = shl i32 %168, 24
  %170 = load ptr, ptr %6, align 8, !tbaa !5
  %171 = getelementptr inbounds i8, ptr %170, i64 3
  %172 = load i8, ptr %171, align 1, !tbaa !14
  %173 = zext i8 %172 to i32
  %174 = shl i32 %173, 16
  %175 = or i32 %169, %174
  %176 = load ptr, ptr %6, align 8, !tbaa !5
  %177 = getelementptr inbounds i8, ptr %176, i64 2
  %178 = load i8, ptr %177, align 1, !tbaa !14
  %179 = zext i8 %178 to i32
  %180 = shl i32 %179, 8
  %181 = or i32 %175, %180
  %182 = load ptr, ptr %6, align 8, !tbaa !5
  %183 = getelementptr inbounds i8, ptr %182, i64 1
  %184 = load i8, ptr %183, align 1, !tbaa !14
  %185 = zext i8 %184 to i32
  %186 = or i32 %181, %185
  store i32 %186, ptr %8, align 4, !tbaa !12
  br label %187

187:                                              ; preds = %164, %159
  br label %188

188:                                              ; preds = %187
  br label %189

189:                                              ; preds = %188
  br label %107, !llvm.loop !37

190:                                              ; preds = %114
  br label %191

191:                                              ; preds = %190, %16
  br label %215

192:                                              ; preds = %2
  %193 = load ptr, ptr %4, align 8, !tbaa !5
  %194 = getelementptr inbounds nuw i8, ptr %193, i64 10
  store ptr %194, ptr %6, align 8, !tbaa !5
  br label %195

195:                                              ; preds = %213, %192
  %196 = load i32, ptr %5, align 4, !tbaa !12
  %197 = add nsw i32 %196, -1
  store i32 %197, ptr %5, align 4, !tbaa !12
  %198 = icmp ne i32 %196, 0
  br i1 %198, label %199, label %214

199:                                              ; preds = %195
  %200 = load ptr, ptr %4, align 8, !tbaa !5
  %201 = load i64, ptr %9, align 8, !tbaa !10
  %202 = load ptr, ptr %6, align 8, !tbaa !5
  %203 = call i32 @zipRawEntryLengthSafe(ptr noundef %200, i64 noundef %201, ptr noundef %202)
  %204 = load ptr, ptr %6, align 8, !tbaa !5
  %205 = zext i32 %203 to i64
  %206 = getelementptr inbounds nuw i8, ptr %204, i64 %205
  store ptr %206, ptr %6, align 8, !tbaa !5
  %207 = load ptr, ptr %6, align 8, !tbaa !5
  %208 = getelementptr inbounds i8, ptr %207, i64 0
  %209 = load i8, ptr %208, align 1, !tbaa !14
  %210 = zext i8 %209 to i32
  %211 = icmp eq i32 %210, 255
  br i1 %211, label %212, label %213

212:                                              ; preds = %199
  br label %214

213:                                              ; preds = %199
  br label %195, !llvm.loop !38

214:                                              ; preds = %212, %195
  br label %215

215:                                              ; preds = %214, %191
  %216 = load ptr, ptr %6, align 8, !tbaa !5
  %217 = getelementptr inbounds i8, ptr %216, i64 0
  %218 = load i8, ptr %217, align 1, !tbaa !14
  %219 = zext i8 %218 to i32
  %220 = icmp eq i32 %219, 255
  br i1 %220, label %224, label %221

221:                                              ; preds = %215
  %222 = load i32, ptr %5, align 4, !tbaa !12
  %223 = icmp sgt i32 %222, 0
  br i1 %223, label %224, label %225

224:                                              ; preds = %221, %215
  store ptr null, ptr %3, align 8
  store i32 1, ptr %10, align 4
  br label %230

225:                                              ; preds = %221
  %226 = load ptr, ptr %4, align 8, !tbaa !5
  %227 = load i64, ptr %9, align 8, !tbaa !10
  %228 = load ptr, ptr %6, align 8, !tbaa !5
  call void @zipAssertValidEntry(ptr noundef %226, i64 noundef %227, ptr noundef %228)
  %229 = load ptr, ptr %6, align 8, !tbaa !5
  store ptr %229, ptr %3, align 8
  store i32 1, ptr %10, align 4
  br label %230

230:                                              ; preds = %225, %224
  call void @llvm.lifetime.end.p0(i64 8, ptr %9) #11
  call void @llvm.lifetime.end.p0(i64 4, ptr %8) #11
  call void @llvm.lifetime.end.p0(i64 4, ptr %7) #11
  call void @llvm.lifetime.end.p0(i64 8, ptr %6) #11
  %231 = load ptr, ptr %3, align 8
  ret ptr %231
}