; Function Attrs: nounwind uwtable
define dso_local noundef ptr @ziplistIndex(ptr noundef %0, i32 noundef %1) local_unnamed_addr #5 {
  %3 = alloca %struct.zlentry, align 8
  %4 = alloca %struct.zlentry, align 8
  %5 = load i32, ptr %0, align 4, !tbaa !5
  %6 = zext i32 %5 to i64
  %7 = icmp slt i32 %1, 0
  br i1 %7, label %8, label %46

8:                                                ; preds = %2
  %9 = xor i32 %1, -1
  %10 = getelementptr inbounds nuw i8, ptr %0, i64 4
  %11 = load i32, ptr %10, align 4, !tbaa !5
  %12 = zext i32 %11 to i64
  %.ptr67 = getelementptr inbounds nuw i8, ptr %0, i64 %12
  %13 = load i8, ptr %.ptr67, align 1, !tbaa !9
  switch i8 %13, label %14 [
    i8 -1, label %.critedge
    i8 -2, label %.thread
  ]

14:                                               ; preds = %8
  %15 = getelementptr inbounds nuw i8, ptr %.ptr67, i64 1
  %16 = getelementptr inbounds nuw i8, ptr %0, i64 %6
  %17 = getelementptr inbounds i8, ptr %16, i64 -1
  %18 = icmp ult ptr %15, %17
  br i1 %18, label %24, label %23, !prof !14

.thread:                                          ; preds = %8
  %19 = getelementptr inbounds nuw i8, ptr %.ptr67, i64 5
  %20 = getelementptr inbounds nuw i8, ptr %0, i64 %6
  %21 = getelementptr inbounds i8, ptr %20, i64 -1
  %22 = icmp ult ptr %19, %21
  br i1 %22, label %.thread70, label %23, !prof !14

23:                                               ; preds = %.thread, %14
  tail call void @_serverAssert(ptr noundef nonnull @.str.11, ptr noundef nonnull @.str.1, i32 noundef 1163) #17
  tail call void @abort() #18
  unreachable

24:                                               ; preds = %14
  %25 = zext i8 %13 to i32
  br label %28

.thread70:                                        ; preds = %.thread
  %26 = getelementptr i8, ptr %.ptr67, i64 1
  %27 = load i32, ptr %26, align 1
  br label %28

28:                                               ; preds = %.thread70, %24
  %29 = phi ptr [ %17, %24 ], [ %21, %.thread70 ]
  %.048 = phi i32 [ %25, %24 ], [ %27, %.thread70 ]
  %.not6574 = icmp eq i32 %.048, 0
  br i1 %.not6574, label %.critedge.loopexit, label %.lr.ph

.lr.ph:                                           ; preds = %28, %45
  %.177 = phi i32 [ %.2, %45 ], [ %.048, %28 ]
  %.052.idx76 = phi i64 [ %.052.add, %45 ], [ %12, %28 ]
  %.05575 = phi i32 [ %30, %45 ], [ %9, %28 ]
  %30 = add nsw i32 %.05575, -1
  %.not66 = icmp eq i32 %.05575, 0
  br i1 %.not66, label %.critedge.loopexit, label %31

31:                                               ; preds = %.lr.ph
  %32 = zext i32 %.177 to i64
  %.052.add = sub nsw i64 %.052.idx76, %32
  %.ptr = getelementptr inbounds i8, ptr %0, i64 %.052.add
  %33 = icmp sgt i64 %.052.add, 9
  %34 = icmp ult ptr %.ptr, %29
  %35 = select i1 %33, i1 %34, i1 false, !prof !14
  br i1 %35, label %37, label %36, !prof !14

36:                                               ; preds = %31
  tail call void @_serverAssert(ptr noundef nonnull @.str.12, ptr noundef nonnull @.str.1, i32 noundef 1167) #17
  tail call void @abort() #18
  unreachable

37:                                               ; preds = %31
  %38 = load i8, ptr %.ptr, align 1, !tbaa !9
  %39 = icmp ult i8 %38, -2
  br i1 %39, label %40, label %42

40:                                               ; preds = %37
  %41 = zext i8 %38 to i32
  br label %45

42:                                               ; preds = %37
  %43 = getelementptr i8, ptr %.ptr, i64 1
  %44 = load i32, ptr %43, align 1
  br label %45

45:                                               ; preds = %42, %40
  %.2 = phi i32 [ %41, %40 ], [ %44, %42 ]
  %.not65 = icmp eq i32 %.2, 0
  br i1 %.not65, label %.critedge.loopexit, label %.lr.ph, !llvm.loop !33

46:                                               ; preds = %2
  %47 = getelementptr inbounds nuw i8, ptr %0, i64 10
  %48 = getelementptr inbounds nuw i8, ptr %4, i64 16
  %49 = getelementptr inbounds nuw i8, ptr %4, i64 12
  br label %50

50:                                               ; preds = %zipRawEntryLengthSafe.exit, %46
  %.257 = phi i32 [ %1, %46 ], [ %51, %zipRawEntryLengthSafe.exit ]
  %.254 = phi ptr [ %47, %46 ], [ %59, %zipRawEntryLengthSafe.exit ]
  %51 = add nsw i32 %.257, -1
  %.not = icmp eq i32 %.257, 0
  br i1 %.not, label %.critedge, label %52

52:                                               ; preds = %50
  call void @llvm.lifetime.start.p0(i64 32, ptr nonnull %4) #17
  %53 = call fastcc i32 @zipEntrySafe(ptr noundef nonnull %0, i64 noundef range(i64 0, 4294967296) %6, ptr noundef nonnull %.254, ptr noundef %4, i32 noundef 0)
  %.not.i = icmp eq i32 %53, 0
  br i1 %.not.i, label %54, label %zipRawEntryLengthSafe.exit, !prof !24

54:                                               ; preds = %52
  tail call void @_serverAssert(ptr noundef nonnull @.str.35, ptr noundef nonnull @.str.1, i32 noundef 693) #17
  tail call void @abort() #18
  unreachable

zipRawEntryLengthSafe.exit:                       ; preds = %52
  %55 = load i32, ptr %48, align 8, !tbaa !22
  %56 = load i32, ptr %49, align 4, !tbaa !21
  %57 = add i32 %56, %55
  call void @llvm.lifetime.end.p0(i64 32, ptr nonnull %4) #17
  %58 = zext i32 %57 to i64
  %59 = getelementptr inbounds nuw i8, ptr %.254, i64 %58
  %60 = load i8, ptr %59, align 1, !tbaa !9
  %61 = icmp eq i8 %60, -1
  br i1 %61, label %.critedge, label %50, !llvm.loop !34

.critedge.loopexit:                               ; preds = %45, %.lr.ph, %28
  %.052.idx.lcssa = phi i64 [ %12, %28 ], [ %.052.idx76, %.lr.ph ], [ %.052.add, %45 ]
  %.156.ph = phi i32 [ %9, %28 ], [ -1, %.lr.ph ], [ %30, %45 ]
  %.052.ptr.le = getelementptr inbounds i8, ptr %0, i64 %.052.idx.lcssa
  br label %.critedge

.critedge:                                        ; preds = %50, %zipRawEntryLengthSafe.exit, %.critedge.loopexit, %8
  %.156 = phi i32 [ %9, %8 ], [ %.156.ph, %.critedge.loopexit ], [ -1, %50 ], [ %51, %zipRawEntryLengthSafe.exit ]
  %.153 = phi ptr [ %.ptr67, %8 ], [ %.052.ptr.le, %.critedge.loopexit ], [ %.254, %50 ], [ %59, %zipRawEntryLengthSafe.exit ]
  %62 = load i8, ptr %.153, align 1, !tbaa !9
  %63 = icmp eq i8 %62, -1
  %64 = icmp sgt i32 %.156, 0
  %or.cond = select i1 %63, i1 true, i1 %64
  br i1 %or.cond, label %68, label %65

65:                                               ; preds = %.critedge
  call void @llvm.lifetime.start.p0(i64 32, ptr nonnull %3) #17
  %66 = call fastcc i32 @zipEntrySafe(ptr noundef nonnull %0, i64 noundef range(i64 0, 4294967296) %6, ptr noundef nonnull %.153, ptr noundef %3, i32 noundef 1)
  %.not.i68 = icmp eq i32 %66, 0
  br i1 %.not.i68, label %67, label %zipAssertValidEntry.exit, !prof !24

67:                                               ; preds = %65
  tail call void @_serverAssert(ptr noundef nonnull @.str.14, ptr noundef nonnull @.str.1, i32 noundef 707) #17
  tail call void @abort() #18
  unreachable

zipAssertValidEntry.exit:                         ; preds = %65
  call void @llvm.lifetime.end.p0(i64 32, ptr nonnull %3) #17
  br label %68

68:                                               ; preds = %.critedge, %zipAssertValidEntry.exit
  %.0 = phi ptr [ %.153, %zipAssertValidEntry.exit ], [ null, %.critedge ]
  ret ptr %.0
}